; Function Attrs: nounwind uwtable
define i32 @dt_gimp_load_darkroom(ptr noundef %0) local_unnamed_addr #0 {
  %2 = alloca i32, align 4
  call void @llvm.lifetime.start.p0(i64 4, ptr nonnull %2) #8
  %3 = call i32 @dt_load_from_string(ptr noundef %0, i32 noundef 1, ptr noundef nonnull %2) #8
  store i32 %3, ptr getelementptr inbounds nuw (i8, ptr @darktable, i64 3440), align 8, !tbaa !76
  %4 = load i32, ptr %2, align 4, !tbaa !77
  %.not = icmp eq i32 %4, 0
  %5 = zext i1 %.not to i32
  store i32 %5, ptr getelementptr inbounds nuw (i8, ptr @darktable, i64 3444), align 4, !tbaa !78
  call void @llvm.lifetime.end.p0(i64 4, ptr nonnull %2) #8
  ret i32 %3
}